; Function Attrs: nounwind uwtable
define hidden i32 @BN_mod_add(ptr noundef %0, ptr noundef %1, ptr noundef %2, ptr noundef %3, ptr noundef %4) local_unnamed_addr #0 {
  %6 = tail call i32 @BN_add(ptr noundef %0, ptr noundef %1, ptr noundef %2) #6
  %.not = icmp eq i32 %6, 0
  br i1 %.not, label %BN_nnmod.exit, label %7

7:                                                ; preds = %5
  %8 = tail call i32 @BN_div(ptr noundef null, ptr noundef %0, ptr noundef %0, ptr noundef %3, ptr noundef %4)
  %.not.i = icmp eq i32 %8, 0
  br i1 %.not.i, label %BN_nnmod.exit, label %9

9:                                                ; preds = %7
  %10 = getelementptr inbounds nuw i8, ptr %0, i64 16
  %11 = load i32, ptr %10, align 8, !tbaa !17
  %.not9.i = icmp eq i32 %11, 0
  br i1 %.not9.i, label %BN_nnmod.exit, label %12

12:                                               ; preds = %9
  %13 = getelementptr inbounds nuw i8, ptr %3, i64 16
  %14 = load i32, ptr %13, align 8, !tbaa !17
  %.not10.i = icmp eq i32 %14, 0
  %15 = select i1 %.not10.i, ptr @BN_add, ptr @BN_sub
  %16 = tail call i32 %15(ptr noundef nonnull %0, ptr noundef nonnull %0, ptr noundef %3) #6, !callees !22
  br label %BN_nnmod.exit

BN_nnmod.exit:                                    ; preds = %12, %9, %7, %5
  %.0 = phi i32 [ 0, %5 ], [ %16, %12 ], [ 0, %7 ], [ 1, %9 ]
  ret i32 %.0
}